target datalayout = "e-m:e-p270:32:32-p271:32:32-p272:64:64-i64:64-i128:128-f80:128-n8:16:32:64-S128"
target triple = "x86_64-pc-linux-gnu"

%struct._ir_ctx = type { ptr, i32, i32, i32, i32, i32, i32, i32, i32, i32, i32, %struct._ir_insn, ptr, ptr, ptr, i32, i32, i32, ptr, ptr, ptr, ptr, ptr, i32, i32, i64, i32, i32, i32, i64, i32, i32, i32, i32, ptr, ptr, ptr, ptr, ptr, ptr, %union.anon.13, ptr, i32, i32, i32, i64, i32, i32, i32, ptr, ptr, ptr, ptr, %struct._ir_strtab, [61 x i32], [14 x i32] }
%struct._ir_insn = type { %struct.anon, %union.anon.5 }
%struct.anon = type { %union.anon, %union.anon.4 }
%union.anon = type { i32 }
%union.anon.4 = type { i32 }
%union.anon.5 = type { %union._ir_val }
%union._ir_val = type { double }
%union.anon.13 = type { ptr }
%struct._ir_strtab = type { ptr, i32, i32, i32, i32, ptr, i32, i32 }
%struct._ir_live_interval = type { i8, i8, i16, %union.anon.17, %union.anon.18, i32, %struct._ir_live_range, ptr, ptr, ptr, ptr }
%union.anon.17 = type { i32 }
%union.anon.18 = type { i32 }
%struct._ir_live_range = type { i32, i32, ptr }
%struct.anon.6 = type { i32, i32 }
%struct._ir_use_pos = type { i16, i8, i8, i32, i32, ptr }

; Function Attrs: nounwind uwtable
define internal void @ir_swap_operands(ptr noundef %0, i32 noundef %1, ptr noundef %2) #0 {
  %4 = alloca ptr, align 8
  %5 = alloca i32, align 4
  %6 = alloca ptr, align 8
  %7 = alloca i32, align 4
  %8 = alloca i32, align 4
  %9 = alloca ptr, align 8
  %10 = alloca ptr, align 8
  %11 = alloca ptr, align 8
  %12 = alloca ptr, align 8
  %13 = alloca ptr, align 8
  %14 = alloca i32, align 4
  %15 = alloca i8, align 1
  store ptr %0, ptr %4, align 8
  store i32 %1, ptr %5, align 4
  store ptr %2, ptr %6, align 8
  %16 = load i32, ptr %5, align 4
  %17 = mul nsw i32 %16, 4
  %18 = add nsw i32 %17, 1
  store i32 %18, ptr %7, align 4
  %19 = load i32, ptr %5, align 4
  %20 = mul nsw i32 %19, 4
  %21 = add nsw i32 %20, 0
  store i32 %21, ptr %8, align 4
  store ptr null, ptr %12, align 8
  store ptr null, ptr %13, align 8
  %22 = load ptr, ptr %6, align 8
  %23 = getelementptr inbounds %struct._ir_insn, ptr %22, i32 0, i32 0
  %24 = getelementptr inbounds %struct.anon, ptr %23, i32 0, i32 1
  %25 = load i32, ptr %24, align 4
  store i32 %25, ptr %14, align 4
  %26 = load ptr, ptr %6, align 8
  %27 = getelementptr inbounds %struct._ir_insn, ptr %26, i32 0, i32 1
  %28 = getelementptr inbounds %struct.anon.6, ptr %27, i32 0, i32 0
  %29 = load i32, ptr %28, align 8
  %30 = load ptr, ptr %6, align 8
  %31 = getelementptr inbounds %struct._ir_insn, ptr %30, i32 0, i32 0
  %32 = getelementptr inbounds %struct.anon, ptr %31, i32 0, i32 1
  store i32 %29, ptr %32, align 4
  %33 = load i32, ptr %14, align 4
  %34 = load ptr, ptr %6, align 8
  %35 = getelementptr inbounds %struct._ir_insn, ptr %34, i32 0, i32 1
  %36 = getelementptr inbounds %struct.anon.6, ptr %35, i32 0, i32 0
  store i32 %33, ptr %36, align 8
  %37 = load ptr, ptr %4, align 8
  %38 = getelementptr inbounds %struct._ir_ctx, ptr %37, i32 0, i32 34
  %39 = load ptr, ptr %38, align 8
  %40 = load ptr, ptr %4, align 8
  %41 = getelementptr inbounds %struct._ir_ctx, ptr %40, i32 0, i32 22
  %42 = load ptr, ptr %41, align 8
  %43 = load ptr, ptr %6, align 8
  %44 = getelementptr inbounds %struct._ir_insn, ptr %43, i32 0, i32 0
  %45 = getelementptr inbounds %struct.anon, ptr %44, i32 0, i32 1
  %46 = load i32, ptr %45, align 4
  %47 = sext i32 %46 to i64
  %48 = getelementptr inbounds i32, ptr %42, i64 %47
  %49 = load i32, ptr %48, align 4
  %50 = zext i32 %49 to i64
  %51 = getelementptr inbounds ptr, ptr %39, i64 %50
  %52 = load ptr, ptr %51, align 8
  store ptr %52, ptr %9, align 8
  %53 = load ptr, ptr %9, align 8
  %54 = getelementptr inbounds %struct._ir_live_interval, ptr %53, i32 0, i32 8
  %55 = load ptr, ptr %54, align 8
  store ptr %55, ptr %11, align 8
  br label %56

56:                                               ; preds = %72, %3
  %57 = load ptr, ptr %11, align 8
  %58 = icmp ne ptr %57, null
  br i1 %58, label %59, label %76

59:                                               ; preds = %56
  %60 = load ptr, ptr %11, align 8
  %61 = getelementptr inbounds %struct._ir_use_pos, ptr %60, i32 0, i32 4
  %62 = load i32, ptr %61, align 8
  %63 = load i32, ptr %7, align 4
  %64 = icmp eq i32 %62, %63
  br i1 %64, label %65, label %72

65:                                               ; preds = %59
  %66 = load i32, ptr %8, align 4
  %67 = load ptr, ptr %11, align 8
  %68 = getelementptr inbounds %struct._ir_use_pos, ptr %67, i32 0, i32 4
  store i32 %66, ptr %68, align 8
  %69 = load ptr, ptr %11, align 8
  %70 = getelementptr inbounds %struct._ir_use_pos, ptr %69, i32 0, i32 0
  store i16 1, ptr %70, align 8
  %71 = load ptr, ptr %11, align 8
  store ptr %71, ptr %12, align 8
  br label %76

72:                                               ; preds = %59
  %73 = load ptr, ptr %11, align 8
  %74 = getelementptr inbounds %struct._ir_use_pos, ptr %73, i32 0, i32 5
  %75 = load ptr, ptr %74, align 8
  store ptr %75, ptr %11, align 8
  br label %56

76:                                               ; preds = %65, %56
  %77 = load ptr, ptr %4, align 8
  %78 = getelementptr inbounds %struct._ir_ctx, ptr %77, i32 0, i32 34
  %79 = load ptr, ptr %78, align 8
  %80 = load ptr, ptr %4, align 8
  %81 = getelementptr inbounds %struct._ir_ctx, ptr %80, i32 0, i32 22
  %82 = load ptr, ptr %81, align 8
  %83 = load i32, ptr %5, align 4
  %84 = sext i32 %83 to i64
  %85 = getelementptr inbounds i32, ptr %82, i64 %84
  %86 = load i32, ptr %85, align 4
  %87 = zext i32 %86 to i64
  %88 = getelementptr inbounds ptr, ptr %79, i64 %87
  %89 = load ptr, ptr %88, align 8
  store ptr %89, ptr %9, align 8
  %90 = load ptr, ptr %9, align 8
  %91 = getelementptr inbounds %struct._ir_live_interval, ptr %90, i32 0, i32 8
  %92 = load ptr, ptr %91, align 8
  store ptr %92, ptr %11, align 8
  br label %93

93:                                               ; preds = %109, %76
  %94 = load ptr, ptr %11, align 8
  %95 = icmp ne ptr %94, null
  br i1 %95, label %96, label %113

96:                                               ; preds = %93
  %97 = load ptr, ptr %11, align 8
  %98 = getelementptr inbounds %struct._ir_use_pos, ptr %97, i32 0, i32 4
  %99 = load i32, ptr %98, align 8
  %100 = load i32, ptr %8, align 4
  %101 = icmp eq i32 %99, %100
  br i1 %101, label %102, label %109

102:                                              ; preds = %96
  %103 = load ptr, ptr %6, align 8
  %104 = getelementptr inbounds %struct._ir_insn, ptr %103, i32 0, i32 0
  %105 = getelementptr inbounds %struct.anon, ptr %104, i32 0, i32 1
  %106 = load i32, ptr %105, align 4
  %107 = load ptr, ptr %11, align 8
  %108 = getelementptr inbounds %struct._ir_use_pos, ptr %107, i32 0, i32 3
  store i32 %106, ptr %108, align 4
  br label %113

109:                                              ; preds = %96
  %110 = load ptr, ptr %11, align 8
  %111 = getelementptr inbounds %struct._ir_use_pos, ptr %110, i32 0, i32 5
  %112 = load ptr, ptr %111, align 8
  store ptr %112, ptr %11, align 8
  br label %93

113:                                              ; preds = %102, %93
  %114 = load ptr, ptr %6, align 8
  %115 = getelementptr inbounds %struct._ir_insn, ptr %114, i32 0, i32 1
  %116 = getelementptr inbounds %struct.anon.6, ptr %115, i32 0, i32 0
  %117 = load i32, ptr %116, align 8
  %118 = icmp sgt i32 %117, 0
  br i1 %118, label %119, label %201

119:                                              ; preds = %113
  %120 = load ptr, ptr %4, align 8
  %121 = getelementptr inbounds %struct._ir_ctx, ptr %120, i32 0, i32 22
  %122 = load ptr, ptr %121, align 8
  %123 = load ptr, ptr %6, align 8
  %124 = getelementptr inbounds %struct._ir_insn, ptr %123, i32 0, i32 1
  %125 = getelementptr inbounds %struct.anon.6, ptr %124, i32 0, i32 0
  %126 = load i32, ptr %125, align 8
  %127 = sext i32 %126 to i64
  %128 = getelementptr inbounds i32, ptr %122, i64 %127
  %129 = load i32, ptr %128, align 4
  %130 = icmp ne i32 %129, 0
  br i1 %130, label %131, label %201

131:                                              ; preds = %119
  %132 = load ptr, ptr %4, align 8
  %133 = getelementptr inbounds %struct._ir_ctx, ptr %132, i32 0, i32 34
  %134 = load ptr, ptr %133, align 8
  %135 = load ptr, ptr %4, align 8
  %136 = getelementptr inbounds %struct._ir_ctx, ptr %135, i32 0, i32 22
  %137 = load ptr, ptr %136, align 8
  %138 = load ptr, ptr %6, align 8
  %139 = getelementptr inbounds %struct._ir_insn, ptr %138, i32 0, i32 1
  %140 = getelementptr inbounds %struct.anon.6, ptr %139, i32 0, i32 0
  %141 = load i32, ptr %140, align 8
  %142 = sext i32 %141 to i64
  %143 = getelementptr inbounds i32, ptr %137, i64 %142
  %144 = load i32, ptr %143, align 4
  %145 = zext i32 %144 to i64
  %146 = getelementptr inbounds ptr, ptr %134, i64 %145
  %147 = load ptr, ptr %146, align 8
  store ptr %147, ptr %9, align 8
  %148 = load ptr, ptr %9, align 8
  %149 = getelementptr inbounds %struct._ir_live_interval, ptr %148, i32 0, i32 6
  store ptr %149, ptr %10, align 8
  br label %150

150:                                              ; preds = %172, %131
  %151 = load ptr, ptr %10, align 8
  %152 = icmp ne ptr %151, null
  br i1 %152, label %153, label %176

153:                                              ; preds = %150
  %154 = load ptr, ptr %10, align 8
  %155 = getelementptr inbounds %struct._ir_live_range, ptr %154, i32 0, i32 1
  %156 = load i32, ptr %155, align 4
  %157 = load i32, ptr %8, align 4
  %158 = icmp eq i32 %156, %157
  br i1 %158, label %159, label %172

159:                                              ; preds = %153
  %160 = load i32, ptr %7, align 4
  %161 = load ptr, ptr %10, align 8
  %162 = getelementptr inbounds %struct._ir_live_range, ptr %161, i32 0, i32 1
  store i32 %160, ptr %162, align 4
  %163 = load ptr, ptr %10, align 8
  %164 = getelementptr inbounds %struct._ir_live_range, ptr %163, i32 0, i32 2
  %165 = load ptr, ptr %164, align 8
  %166 = icmp ne ptr %165, null
  br i1 %166, label %171, label %167

167:                                              ; preds = %159
  %168 = load i32, ptr %7, align 4
  %169 = load ptr, ptr %9, align 8
  %170 = getelementptr inbounds %struct._ir_live_interval, ptr %169, i32 0, i32 5
  store i32 %168, ptr %170, align 4
  br label %171

171:                                              ; preds = %167, %159
  br label %176

172:                                              ; preds = %153
  %173 = load ptr, ptr %10, align 8
  %174 = getelementptr inbounds %struct._ir_live_range, ptr %173, i32 0, i32 2
  %175 = load ptr, ptr %174, align 8
  store ptr %175, ptr %10, align 8
  br label %150

176:                                              ; preds = %171, %150
  %177 = load ptr, ptr %9, align 8
  %178 = getelementptr inbounds %struct._ir_live_interval, ptr %177, i32 0, i32 8
  %179 = load ptr, ptr %178, align 8
  store ptr %179, ptr %11, align 8
  br label %180

180:                                              ; preds = %196, %176
  %181 = load ptr, ptr %11, align 8
  %182 = icmp ne ptr %181, null
  br i1 %182, label %183, label %200

183:                                              ; preds = %180
  %184 = load ptr, ptr %11, align 8
  %185 = getelementptr inbounds %struct._ir_use_pos, ptr %184, i32 0, i32 4
  %186 = load i32, ptr %185, align 8
  %187 = load i32, ptr %8, align 4
  %188 = icmp eq i32 %186, %187
  br i1 %188, label %189, label %196

189:                                              ; preds = %183
  %190 = load i32, ptr %7, align 4
  %191 = load ptr, ptr %11, align 8
  %192 = getelementptr inbounds %struct._ir_use_pos, ptr %191, i32 0, i32 4
  store i32 %190, ptr %192, align 8
  %193 = load ptr, ptr %11, align 8
  %194 = getelementptr inbounds %struct._ir_use_pos, ptr %193, i32 0, i32 0
  store i16 2, ptr %194, align 8
  %195 = load ptr, ptr %11, align 8
  store ptr %195, ptr %13, align 8
  br label %200

196:                                              ; preds = %183
  %197 = load ptr, ptr %11, align 8
  %198 = getelementptr inbounds %struct._ir_use_pos, ptr %197, i32 0, i32 5
  %199 = load ptr, ptr %198, align 8
  store ptr %199, ptr %11, align 8
  br label %180

200:                                              ; preds = %189, %180
  br label %201

201:                                              ; preds = %200, %119, %113
  %202 = load ptr, ptr %12, align 8
  %203 = icmp ne ptr %202, null
  br i1 %203, label %204, label %219

204:                                              ; preds = %201
  %205 = load ptr, ptr %13, align 8
  %206 = icmp ne ptr %205, null
  br i1 %206, label %207, label %219

207:                                              ; preds = %204
  %208 = load ptr, ptr %12, align 8
  %209 = getelementptr inbounds %struct._ir_use_pos, ptr %208, i32 0, i32 2
  %210 = load i8, ptr %209, align 1
  store i8 %210, ptr %15, align 1
  %211 = load ptr, ptr %13, align 8
  %212 = getelementptr inbounds %struct._ir_use_pos, ptr %211, i32 0, i32 2
  %213 = load i8, ptr %212, align 1
  %214 = load ptr, ptr %12, align 8
  %215 = getelementptr inbounds %struct._ir_use_pos, ptr %214, i32 0, i32 2
  store i8 %213, ptr %215, align 1
  %216 = load i8, ptr %15, align 1
  %217 = load ptr, ptr %13, align 8
  %218 = getelementptr inbounds %struct._ir_use_pos, ptr %217, i32 0, i32 2
  store i8 %216, ptr %218, align 1
  br label %219

219:                                              ; preds = %207, %204, %201
  ret void
}