; Function Attrs: nofree norecurse nosync nounwind memory(readwrite, inaccessiblemem: none) uwtable
define internal fastcc void @ir_swap_operands(ptr nocapture noundef readonly %0, i32 noundef %1, ptr nocapture noundef %2) unnamed_addr #8 {
  %4 = shl nsw i32 %1, 2
  %5 = or disjoint i32 %4, 1
  %6 = getelementptr inbounds i8, ptr %2, i64 4
  %7 = load i32, ptr %6, align 4
  %8 = getelementptr inbounds i8, ptr %2, i64 8
  %9 = load i32, ptr %8, align 8
  store i32 %9, ptr %6, align 4
  store i32 %7, ptr %8, align 8
  %10 = getelementptr inbounds i8, ptr %0, i64 200
  %11 = load ptr, ptr %10, align 8
  %12 = getelementptr inbounds i8, ptr %0, i64 136
  %13 = load ptr, ptr %12, align 8
  %14 = sext i32 %9 to i64
  %15 = getelementptr inbounds i32, ptr %13, i64 %14
  %16 = load i32, ptr %15, align 4
  %17 = zext i32 %16 to i64
  %18 = getelementptr inbounds ptr, ptr %11, i64 %17
  %19 = load ptr, ptr %18, align 8
  %20 = getelementptr inbounds i8, ptr %19, i64 40
  %.06384 = load ptr, ptr %20, align 8
  %.not85 = icmp eq ptr %.06384, null
  br i1 %.not85, label %.loopexit75, label %.lr.ph

.lr.ph:                                           ; preds = %3, %26
  %.06386 = phi ptr [ %.063, %26 ], [ %.06384, %3 ]
  %21 = getelementptr inbounds i8, ptr %.06386, i64 8
  %22 = load i32, ptr %21, align 8
  %23 = icmp eq i32 %22, %5
  br i1 %23, label %24, label %26

24:                                               ; preds = %.lr.ph
  %25 = getelementptr inbounds i8, ptr %.06386, i64 8
  store i32 %4, ptr %25, align 8
  store i16 1, ptr %.06386, align 8
  %.pre = load ptr, ptr %10, align 8
  %.pre100 = load ptr, ptr %12, align 8
  br label %.loopexit75

26:                                               ; preds = %.lr.ph
  %27 = getelementptr inbounds i8, ptr %.06386, i64 16
  %.063 = load ptr, ptr %27, align 8
  %.not = icmp eq ptr %.063, null
  br i1 %.not, label %.loopexit75, label %.lr.ph

.loopexit75:                                      ; preds = %26, %3, %24
  %28 = phi ptr [ %.pre100, %24 ], [ %13, %3 ], [ %13, %26 ]
  %29 = phi ptr [ %.pre, %24 ], [ %11, %3 ], [ %11, %26 ]
  %.06381 = phi ptr [ %.06386, %24 ], [ null, %3 ], [ null, %26 ]
  %30 = sext i32 %1 to i64
  %31 = getelementptr inbounds i32, ptr %28, i64 %30
  %32 = load i32, ptr %31, align 4
  %33 = zext i32 %32 to i64
  %34 = getelementptr inbounds ptr, ptr %29, i64 %33
  %35 = load ptr, ptr %34, align 8
  %36 = getelementptr inbounds i8, ptr %35, i64 40
  %.187 = load ptr, ptr %36, align 8
  %.not6688 = icmp eq ptr %.187, null
  br i1 %.not6688, label %.loopexit74, label %.lr.ph90

.lr.ph90:                                         ; preds = %.loopexit75, %43
  %.189 = phi ptr [ %.1, %43 ], [ %.187, %.loopexit75 ]
  %37 = getelementptr inbounds i8, ptr %.189, i64 8
  %38 = load i32, ptr %37, align 8
  %39 = icmp eq i32 %38, %4
  br i1 %39, label %40, label %43

40:                                               ; preds = %.lr.ph90
  %41 = load i32, ptr %6, align 4
  %42 = getelementptr inbounds i8, ptr %.189, i64 4
  store i32 %41, ptr %42, align 4
  br label %.loopexit74

43:                                               ; preds = %.lr.ph90
  %44 = getelementptr inbounds i8, ptr %.189, i64 16
  %.1 = load ptr, ptr %44, align 8
  %.not66 = icmp eq ptr %.1, null
  br i1 %.not66, label %.loopexit74, label %.lr.ph90

.loopexit74:                                      ; preds = %43, %.loopexit75, %40
  %45 = load i32, ptr %8, align 8
  %46 = icmp sgt i32 %45, 0
  br i1 %46, label %47, label %.thread

47:                                               ; preds = %.loopexit74
  %48 = load ptr, ptr %12, align 8
  %49 = zext nneg i32 %45 to i64
  %50 = getelementptr inbounds i32, ptr %48, i64 %49
  %51 = load i32, ptr %50, align 4
  %.not67 = icmp eq i32 %51, 0
  br i1 %.not67, label %.thread, label %52

52:                                               ; preds = %47
  %53 = load ptr, ptr %10, align 8
  %54 = zext i32 %51 to i64
  %55 = getelementptr inbounds ptr, ptr %53, i64 %54
  %56 = load ptr, ptr %55, align 8
  %57 = getelementptr inbounds i8, ptr %56, i64 16
  br label %58

58:                                               ; preds = %52, %68
  %.091 = phi ptr [ %57, %52 ], [ %70, %68 ]
  %59 = getelementptr inbounds i8, ptr %.091, i64 4
  %60 = load i32, ptr %59, align 4
  %61 = icmp eq i32 %60, %4
  br i1 %61, label %62, label %68

62:                                               ; preds = %58
  %63 = getelementptr inbounds i8, ptr %.091, i64 4
  store i32 %5, ptr %63, align 4
  %64 = getelementptr inbounds i8, ptr %.091, i64 8
  %65 = load ptr, ptr %64, align 8
  %.not69 = icmp eq ptr %65, null
  br i1 %.not69, label %66, label %.loopexit

66:                                               ; preds = %62
  %67 = getelementptr inbounds i8, ptr %56, i64 12
  store i32 %5, ptr %67, align 4
  br label %.loopexit

68:                                               ; preds = %58
  %69 = getelementptr inbounds i8, ptr %.091, i64 8
  %70 = load ptr, ptr %69, align 8
  %.not68 = icmp eq ptr %70, null
  br i1 %.not68, label %.loopexit, label %58

.loopexit:                                        ; preds = %68, %62, %66
  %71 = getelementptr inbounds i8, ptr %56, i64 40
  %.292 = load ptr, ptr %71, align 8
  %.not7093 = icmp eq ptr %.292, null
  br i1 %.not7093, label %.thread, label %.lr.ph95

.lr.ph95:                                         ; preds = %.loopexit, %75
  %.294 = phi ptr [ %.2, %75 ], [ %.292, %.loopexit ]
  %72 = getelementptr inbounds i8, ptr %.294, i64 8
  %73 = load i32, ptr %72, align 8
  %74 = icmp eq i32 %73, %4
  br i1 %74, label %77, label %75

75:                                               ; preds = %.lr.ph95
  %76 = getelementptr inbounds i8, ptr %.294, i64 16
  %.2 = load ptr, ptr %76, align 8
  %.not70 = icmp eq ptr %.2, null
  br i1 %.not70, label %.thread, label %.lr.ph95

77:                                               ; preds = %.lr.ph95
  %78 = getelementptr inbounds i8, ptr %.294, i64 8
  store i32 %5, ptr %78, align 8
  store i16 2, ptr %.294, align 8
  %.not73 = icmp eq ptr %.06381, null
  br i1 %.not73, label %.thread, label %79

79:                                               ; preds = %77
  %80 = getelementptr inbounds i8, ptr %.06381, i64 3
  %81 = load i8, ptr %80, align 1
  %82 = getelementptr inbounds i8, ptr %.294, i64 3
  %83 = load i8, ptr %82, align 1
  store i8 %83, ptr %80, align 1
  store i8 %81, ptr %82, align 1
  br label %.thread

.thread:                                          ; preds = %75, %.loopexit, %.loopexit74, %47, %79, %77
  ret void
}